target datalayout = "e-m:e-p270:32:32-p271:32:32-p272:64:64-i64:64-i128:128-f80:128-n8:16:32:64-S128"
target triple = "x86_64-pc-linux-gnu"

%"class.folly::symbolizer::ElfFile" = type { [512 x i8], i32, ptr, i64, %"struct.folly::symbolizer::ElfFileId", i64 }
%"struct.folly::symbolizer::ElfFileId" = type { i64, i64, i64, i64 }

; Function Attrs: mustprogress uwtable
define void @_ZN5folly10symbolizer7ElfFileC2EPKcRKNS1_7OptionsE(ptr noundef nonnull align 8 dereferenceable(576) %0, ptr noundef %1, ptr noundef nonnull align 1 dereferenceable(1) %2) unnamed_addr #2 align 2 {
  %4 = alloca ptr, align 8
  %5 = alloca ptr, align 8
  %6 = alloca ptr, align 8
  store ptr %0, ptr %4, align 8, !tbaa !7
  store ptr %1, ptr %5, align 8, !tbaa !22
  store ptr %2, ptr %6, align 8, !tbaa !23
  %7 = load ptr, ptr %4, align 8
  %8 = getelementptr inbounds nuw %"class.folly::symbolizer::ElfFile", ptr %7, i32 0, i32 0
  %9 = getelementptr inbounds i8, ptr %8, i64 512
  br label %10

10:                                               ; preds = %10, %3
  %11 = phi ptr [ %8, %3 ], [ %12, %10 ]
  store i8 0, ptr %11, align 1, !tbaa !12
  %12 = getelementptr inbounds i8, ptr %11, i64 1
  %13 = icmp eq ptr %12, %9
  br i1 %13, label %14, label %10

14:                                               ; preds = %10
  %15 = getelementptr inbounds nuw %"class.folly::symbolizer::ElfFile", ptr %7, i32 0, i32 1
  store i32 -1, ptr %15, align 8, !tbaa !13
  %16 = getelementptr inbounds nuw %"class.folly::symbolizer::ElfFile", ptr %7, i32 0, i32 2
  store ptr inttoptr (i64 -1 to ptr), ptr %16, align 8, !tbaa !19
  %17 = getelementptr inbounds nuw %"class.folly::symbolizer::ElfFile", ptr %7, i32 0, i32 3
  store i64 0, ptr %17, align 8, !tbaa !20
  %18 = getelementptr inbounds nuw %"class.folly::symbolizer::ElfFile", ptr %7, i32 0, i32 4
  call void @llvm.memset.p0.i64(ptr align 8 %18, i8 0, i64 32, i1 false)
  %19 = getelementptr inbounds nuw %"class.folly::symbolizer::ElfFile", ptr %7, i32 0, i32 5
  store i64 0, ptr %19, align 8, !tbaa !21
  %20 = load ptr, ptr %5, align 8, !tbaa !22
  %21 = load ptr, ptr %6, align 8, !tbaa !23
  call void @_ZN5folly10symbolizer7ElfFile4openEPKcRKNS1_7OptionsE(ptr noundef nonnull align 8 dereferenceable(576) %7, ptr noundef %20, ptr noundef nonnull align 1 dereferenceable(1) %21)
  ret void
}