; Function Attrs: mustprogress uwtable
define void @_ZN5folly10symbolizer7ElfFileC2EPKcRKNS1_7OptionsE(ptr noundef nonnull align 8 dereferenceable(576) initializes((0, 516), (520, 576)) %0, ptr noundef %1, ptr noundef nonnull readonly align 1 captures(none) dereferenceable(1) %2) unnamed_addr #2 align 2 {
  tail call void @llvm.memset.p0.i64(ptr noundef nonnull align 8 dereferenceable(512) %0, i8 0, i64 512, i1 false), !tbaa !7
  %4 = getelementptr inbounds nuw i8, ptr %0, i64 512
  store i32 -1, ptr %4, align 8, !tbaa !10
  %5 = getelementptr inbounds nuw i8, ptr %0, i64 520
  store ptr inttoptr (i64 -1 to ptr), ptr %5, align 8, !tbaa !17
  %6 = getelementptr inbounds nuw i8, ptr %0, i64 528
  tail call void @llvm.memset.p0.i64(ptr noundef nonnull align 8 dereferenceable(48) %6, i8 0, i64 48, i1 false)
  tail call void @_ZN5folly10symbolizer7ElfFile4openEPKcRKNS1_7OptionsE(ptr noundef nonnull align 8 dereferenceable(576) %0, ptr noundef %1, ptr noundef nonnull align 1 dereferenceable(1) %2)
  ret void
}